target datalayout = "e-m:e-p270:32:32-p271:32:32-p272:64:64-i64:64-i128:128-f80:128-n8:16:32:64-S128"
target triple = "x86_64-pc-linux-gnu"

%struct.rax = type { ptr, i64, i64, [0 x ptr] }

@.str.1 = private unnamed_addr constant [6 x i8] c"rax.c\00", align 1
@.str.4 = private unnamed_addr constant [19 x i8] c"rax->numnodes == 0\00", align 1

; Function Attrs: nounwind uwtable
define dso_local void @raxFreeWithCallback(ptr noundef %0, ptr noundef %1) #0 {
  %3 = alloca ptr, align 8
  %4 = alloca ptr, align 8
  store ptr %0, ptr %3, align 8, !tbaa !14
  store ptr %1, ptr %4, align 8, !tbaa !16
  %5 = load ptr, ptr %3, align 8, !tbaa !14
  %6 = load ptr, ptr %3, align 8, !tbaa !14
  %7 = getelementptr inbounds nuw %struct.rax, ptr %6, i32 0, i32 0
  %8 = load ptr, ptr %7, align 8, !tbaa !11
  %9 = load ptr, ptr %4, align 8, !tbaa !16
  call void @raxRecursiveFree(ptr noundef %5, ptr noundef %8, ptr noundef %9)
  %10 = load ptr, ptr %3, align 8, !tbaa !14
  %11 = getelementptr inbounds nuw %struct.rax, ptr %10, i32 0, i32 2
  %12 = load i64, ptr %11, align 8, !tbaa !9
  %13 = icmp eq i64 %12, 0
  %14 = xor i1 %13, true
  %15 = xor i1 %14, true
  %16 = zext i1 %15 to i32
  %17 = sext i32 %16 to i64
  %18 = call i64 @llvm.expect.i64(i64 %17, i64 1)
  %19 = icmp ne i64 %18, 0
  br i1 %19, label %20, label %21

20:                                               ; preds = %2
  br label %23

21:                                               ; preds = %2
  call void @_serverAssert(ptr noundef @.str.4, ptr noundef @.str.1, i32 noundef 1241)
  call void @abort() #16
  unreachable

22:                                               ; No predecessors!
  br label %23

23:                                               ; preds = %22, %20
  %24 = load ptr, ptr %3, align 8, !tbaa !14
  call void @zfree(ptr noundef %24)
  ret void
}