; Function Attrs: nounwind uwtable
define dso_local void @raxFreeWithCallback(ptr noundef %0, ptr noundef captures(address_is_null) %1) local_unnamed_addr #1 {
  %3 = load ptr, ptr %0, align 8, !tbaa !11
  tail call void @raxRecursiveFree(ptr noundef nonnull %0, ptr noundef %3, ptr noundef %1)
  %4 = getelementptr inbounds nuw i8, ptr %0, i64 16
  %5 = load i64, ptr %4, align 8, !tbaa !9
  %6 = icmp eq i64 %5, 0
  br i1 %6, label %8, label %7, !prof !14

7:                                                ; preds = %2
  tail call void @_serverAssert(ptr noundef nonnull @.str.4, ptr noundef nonnull @.str.1, i32 noundef 1241) #26
  tail call void @abort() #28
  unreachable

8:                                                ; preds = %2
  tail call void @zfree(ptr noundef nonnull %0) #26
  ret void
}